; Function Attrs: nounwind sspstrong uwtable
define internal i64 @enum_chain_size(i64 noundef %0) #0 {
  %2 = tail call ptr @rb_check_typeddata(i64 noundef %0, ptr noundef nonnull @enum_chain_data_type) #18
  %.not.i = icmp eq ptr %2, null
  br i1 %.not.i, label %6, label %3

3:                                                ; preds = %1
  %4 = load i64, ptr %2, align 8, !tbaa !62
  %5 = icmp eq i64 %4, 36
  br i1 %5, label %6, label %enum_chain_ptr.exit

6:                                                ; preds = %3, %1
  %7 = load i64, ptr @rb_eArgError, align 8, !tbaa !7
  tail call void (i64, ptr, ...) @rb_raise(i64 noundef %7, ptr noundef nonnull @.str.147) #19
  unreachable

enum_chain_ptr.exit:                              ; preds = %3
  %8 = inttoptr i64 %4 to ptr
  %9 = getelementptr inbounds nuw i8, ptr %8, i64 16
  %10 = getelementptr inbounds nuw i8, ptr %8, i64 32
  br label %11

11:                                               ; preds = %rb_integer_type_p.exit.thread.i, %enum_chain_ptr.exit
  %.017.i = phi i64 [ 1, %enum_chain_ptr.exit ], [ %52, %rb_integer_type_p.exit.thread.i ]
  %.016.i = phi i64 [ 0, %enum_chain_ptr.exit ], [ %53, %rb_integer_type_p.exit.thread.i ]
  %12 = load i64, ptr %8, align 8, !tbaa !21
  %13 = and i64 %12, 8192
  %.not.i.i = icmp eq i64 %13, 0
  br i1 %.not.i.i, label %rb_array_len.exit.i, label %rb_array_len.exit.thread.i

rb_array_len.exit.i:                              ; preds = %11
  %14 = load i64, ptr %9, align 8, !tbaa !44
  %15 = icmp slt i64 %.016.i, %14
  br i1 %15, label %19, label %enum_chain_total_size.exit

rb_array_len.exit.thread.i:                       ; preds = %11
  %16 = lshr i64 %12, 15
  %17 = and i64 %16, 127
  %18 = icmp samesign ult i64 %.016.i, %17
  br i1 %18, label %RARRAY_AREF.exit.i, label %enum_chain_total_size.exit

19:                                               ; preds = %rb_array_len.exit.i
  %20 = load ptr, ptr %10, align 8, !tbaa !44
  br label %RARRAY_AREF.exit.i

RARRAY_AREF.exit.i:                               ; preds = %19, %rb_array_len.exit.thread.i
  %.0.i.i.i = phi ptr [ %20, %19 ], [ %9, %rb_array_len.exit.thread.i ]
  %21 = getelementptr i64, ptr %.0.i.i.i, i64 %.016.i
  %22 = load i64, ptr %21, align 8, !tbaa !7
  %23 = tail call i64 @rb_check_funcall(i64 noundef %22, i64 noundef 3025, i32 noundef 0, ptr noundef null) #18
  %24 = icmp eq i64 %23, 36
  %25 = select i1 %24, i64 4, i64 %23
  %26 = icmp eq i64 %25, 4
  br i1 %26, label %enum_chain_total_size.exit, label %27

27:                                               ; preds = %RARRAY_AREF.exit.i
  %28 = and i64 %25, 3
  %29 = icmp eq i64 %28, 2
  br i1 %29, label %RB_FLOAT_TYPE_P.exit.thread.i, label %30

30:                                               ; preds = %27
  %31 = icmp eq i64 %25, 0
  %32 = and i64 %25, 7
  %33 = icmp ne i64 %32, 0
  %34 = or i1 %31, %33
  br i1 %34, label %RB_FLOAT_TYPE_P.exit.thread24.i, label %RB_FLOAT_TYPE_P.exit.i

RB_FLOAT_TYPE_P.exit.i:                           ; preds = %30
  %35 = inttoptr i64 %25 to ptr
  %36 = load i64, ptr %35, align 8, !tbaa !21
  %37 = and i64 %36, 31
  %38 = icmp eq i64 %37, 4
  br i1 %38, label %RB_FLOAT_TYPE_P.exit.thread.i, label %RB_FLOAT_TYPE_P.exit.thread24.i

RB_FLOAT_TYPE_P.exit.thread.i:                    ; preds = %RB_FLOAT_TYPE_P.exit.i, %27
  %39 = tail call double @rb_num2dbl(i64 noundef %25) #18
  %40 = tail call double @llvm.fabs.f64(double %39) #22
  %41 = fcmp oeq double %40, 0x7FF0000000000000
  br i1 %41, label %enum_chain_total_size.exit, label %RB_FLOAT_TYPE_P.exit.thread24.i

RB_FLOAT_TYPE_P.exit.thread24.i:                  ; preds = %RB_FLOAT_TYPE_P.exit.thread.i, %RB_FLOAT_TYPE_P.exit.i, %30
  %42 = and i64 %25, 1
  %.not.i20.i = icmp eq i64 %42, 0
  br i1 %.not.i20.i, label %43, label %rb_integer_type_p.exit.thread.i

43:                                               ; preds = %RB_FLOAT_TYPE_P.exit.thread24.i
  %44 = icmp eq i64 %25, 0
  %45 = and i64 %25, 6
  %46 = icmp ne i64 %45, 0
  %47 = or i1 %44, %46
  br i1 %47, label %enum_chain_total_size.exit, label %rb_integer_type_p.exit.i

rb_integer_type_p.exit.i:                         ; preds = %43
  %48 = inttoptr i64 %25 to ptr
  %49 = load i64, ptr %48, align 8, !tbaa !21
  %50 = and i64 %49, 31
  %51 = icmp eq i64 %50, 10
  br i1 %51, label %rb_integer_type_p.exit.thread.i, label %enum_chain_total_size.exit

rb_integer_type_p.exit.thread.i:                  ; preds = %rb_integer_type_p.exit.i, %RB_FLOAT_TYPE_P.exit.thread24.i
  %52 = tail call i64 (i64, i64, i32, ...) @rb_funcall(i64 noundef %.017.i, i64 noundef 43, i32 noundef 1, i64 noundef %25) #18
  %53 = add nuw nsw i64 %.016.i, 1
  br label %11, !llvm.loop !66

enum_chain_total_size.exit:                       ; preds = %rb_array_len.exit.i, %rb_array_len.exit.thread.i, %RARRAY_AREF.exit.i, %RB_FLOAT_TYPE_P.exit.thread.i, %43, %rb_integer_type_p.exit.i
  %.2.i = phi i64 [ %.017.i, %rb_array_len.exit.i ], [ %.017.i, %rb_array_len.exit.thread.i ], [ 4, %rb_integer_type_p.exit.i ], [ 4, %RARRAY_AREF.exit.i ], [ %25, %RB_FLOAT_TYPE_P.exit.thread.i ], [ 4, %43 ]
  ret i64 %.2.i
}